; Function Attrs: nounwind uwtable
define internal fastcc i32 @add_cipher_smcap(ptr noundef nonnull %0, i32 noundef range(i32 31, 814) %1, i32 noundef range(i32 -1, 129) %2) unnamed_addr #0 {
  %4 = tail call ptr @OBJ_nid2sn(i32 noundef %1) #3
  %5 = tail call ptr @EVP_get_cipherbyname(ptr noundef %4) #3
  %.not = icmp eq ptr %5, null
  br i1 %.not, label %8, label %6

6:                                                ; preds = %3
  %7 = tail call i32 @PKCS7_simple_smimecap(ptr noundef nonnull %0, i32 noundef %1, i32 noundef %2) #3
  br label %8

8:                                                ; preds = %3, %6
  %.0 = phi i32 [ %7, %6 ], [ 1, %3 ]
  ret i32 %.0
}